; Function Attrs: nounwind uwtable
define range(i32 -1, 2) i32 @H5Lexists(i64 noundef %0, ptr noundef %1, i64 noundef %2) local_unnamed_addr #0 {
  %4 = alloca i8, align 1
  %5 = alloca %struct.H5CX_node_t, align 8
  call void @llvm.lifetime.start.p0(i64 1, ptr nonnull %4) #7
  call void @llvm.lifetime.start.p0(i64 480, ptr nonnull %5) #7
  call void @llvm.memset.p0.i64(ptr noundef nonnull align 8 dereferenceable(480) %5, i8 0, i64 480, i1 false)
  %6 = load i8, ptr @H5_libinit_g, align 1, !tbaa !7, !range !9, !noundef !10
  %7 = trunc nuw i8 %6 to i1
  %8 = load i8, ptr @H5_libterm_g, align 1, !range !9
  %9 = trunc nuw i8 %8 to i1
  %10 = select i1 %7, i1 true, i1 %9
  br i1 %10, label %18, label %11, !prof !11

11:                                               ; preds = %3
  %12 = tail call i32 @H5_init_library() #7
  %13 = icmp slt i32 %12, 0
  br i1 %13, label %14, label %._crit_edge, !prof !12

._crit_edge:                                      ; preds = %11
  %.pre = load i8, ptr @H5_libterm_g, align 1, !range !9
  br label %18

14:                                               ; preds = %11
  %15 = load i64, ptr @H5E_FUNC_g, align 8, !tbaa !3
  %16 = load i64, ptr @H5E_CANTINIT_g, align 8, !tbaa !3
  %17 = tail call i32 (ptr, ptr, i32, i64, i64, ptr, ...) @H5E_printf_stack(ptr noundef nonnull @.str, ptr noundef nonnull @__func__.H5Lexists, i32 noundef 1170, i64 noundef %15, i64 noundef %16, ptr noundef nonnull @.str.1) #7
  br label %.thread16

18:                                               ; preds = %._crit_edge, %3
  %19 = phi i8 [ %.pre, %._crit_edge ], [ %8, %3 ]
  %20 = load i8, ptr @H5L_init_g, align 1, !tbaa !7, !range !9, !noundef !10
  %21 = trunc nuw i8 %20 to i1
  %22 = trunc nuw i8 %19 to i1
  %23 = select i1 %21, i1 true, i1 %22
  br i1 %23, label %31, label %24, !prof !11

24:                                               ; preds = %18
  store i8 1, ptr @H5L_init_g, align 1, !tbaa !7
  %25 = tail call i32 @H5L__init_package() #7
  %26 = icmp slt i32 %25, 0
  br i1 %26, label %27, label %31, !prof !13

27:                                               ; preds = %24
  store i8 0, ptr @H5L_init_g, align 1, !tbaa !7
  %28 = load i64, ptr @H5E_FUNC_g, align 8, !tbaa !3
  %29 = load i64, ptr @H5E_CANTINIT_g, align 8, !tbaa !3
  %30 = tail call i32 (ptr, ptr, i32, i64, i64, ptr, ...) @H5E_printf_stack(ptr noundef nonnull @.str, ptr noundef nonnull @__func__.H5Lexists, i32 noundef 1170, i64 noundef %28, i64 noundef %29, ptr noundef nonnull @.str.2) #7
  br label %.thread16

31:                                               ; preds = %18, %24
  %32 = call i32 @H5CX_push(ptr noundef nonnull %5) #7
  %33 = icmp slt i32 %32, 0
  br i1 %33, label %34, label %38, !prof !12

34:                                               ; preds = %31
  %35 = load i64, ptr @H5E_FUNC_g, align 8, !tbaa !3
  %36 = load i64, ptr @H5E_CANTSET_g, align 8, !tbaa !3
  %37 = call i32 (ptr, ptr, i32, i64, i64, ptr, ...) @H5E_printf_stack(ptr noundef nonnull @.str, ptr noundef nonnull @__func__.H5Lexists, i32 noundef 1170, i64 noundef %35, i64 noundef %36, ptr noundef nonnull @.str.3) #7
  br label %.thread16

38:                                               ; preds = %31
  %39 = call i32 @H5E_clear_stack() #7
  store i8 0, ptr %4, align 1, !tbaa !7
  %40 = call fastcc i32 @H5L__exists_api_common(i64 noundef %0, ptr noundef %1, ptr noundef nonnull %4, i64 noundef %2, ptr noundef null, ptr noundef null)
  %41 = icmp slt i32 %40, 0
  br i1 %41, label %.thread21, label %46, !prof !19

.thread21:                                        ; preds = %38
  %42 = load i64, ptr @H5E_LINK_g, align 8, !tbaa !3
  %43 = load i64, ptr @H5E_CANTGET_g, align 8, !tbaa !3
  %44 = call i32 (ptr, ptr, i32, i64, i64, ptr, ...) @H5E_printf_stack(ptr noundef nonnull @.str, ptr noundef nonnull @__func__.H5Lexists, i32 noundef 1175, i64 noundef %42, i64 noundef %43, ptr noundef nonnull @.str.61) #7
  %45 = call i32 @H5CX_pop(i1 noundef zeroext true) #7
  br label %.thread16

46:                                               ; preds = %38
  %47 = load i8, ptr %4, align 1, !tbaa !7, !range !9, !noundef !10
  %48 = zext nneg i8 %47 to i32
  %49 = call i32 @H5CX_pop(i1 noundef zeroext true) #7
  br label %51

.thread16:                                        ; preds = %14, %27, %34, %.thread21
  %50 = call i32 @H5E_dump_api_stack() #7
  br label %51

51:                                               ; preds = %46, %.thread16
  %.0101419 = phi i32 [ -1, %.thread16 ], [ %48, %46 ]
  call void @llvm.lifetime.end.p0(i64 480, ptr nonnull %5) #7
  call void @llvm.lifetime.end.p0(i64 1, ptr nonnull %4) #7
  ret i32 %.0101419
}